target datalayout = "e-m:e-p270:32:32-p271:32:32-p272:64:64-i64:64-i128:128-f80:128-n8:16:32:64-S128"
target triple = "x86_64-pc-linux-gnu"

@.str.11 = private unnamed_addr constant [1 x i8] zeroinitializer, align 1
@.str.13 = private unnamed_addr constant [2 x i8] c",\00", align 1
@.str.178 = private unnamed_addr constant [7 x i8] c"%s%s%s\00", align 1

; Function Attrs: nounwind uwtable
define dso_local ptr @slurmdb_combine_tres_strings(ptr noundef %0, ptr noundef %1, i32 noundef %2) #0 {
  %4 = alloca ptr, align 8
  %5 = alloca ptr, align 8
  %6 = alloca i32, align 4
  %7 = alloca ptr, align 8
  store ptr %0, ptr %4, align 8
  store ptr %1, ptr %5, align 8
  store i32 %2, ptr %6, align 4
  call void @llvm.lifetime.start.p0(i64 8, ptr %7) #10
  store ptr null, ptr %7, align 8
  %8 = load ptr, ptr %5, align 8
  %9 = icmp ne ptr %8, null
  br i1 %9, label %10, label %35

10:                                               ; preds = %3
  %11 = load ptr, ptr %5, align 8
  %12 = getelementptr inbounds i8, ptr %11, i64 0
  %13 = load i8, ptr %12, align 1
  %14 = sext i8 %13 to i32
  %15 = icmp ne i32 %14, 0
  br i1 %15, label %16, label %35

16:                                               ; preds = %10
  %17 = load ptr, ptr %4, align 8
  %18 = load i32, ptr %6, align 4
  %19 = and i32 %18, 33
  %20 = icmp ne i32 %19, 0
  %21 = select i1 %20, ptr @.str.13, ptr @.str.11
  %22 = load ptr, ptr %4, align 8
  %23 = load ptr, ptr %22, align 8
  %24 = icmp ne ptr %23, null
  br i1 %24, label %25, label %31

25:                                               ; preds = %16
  %26 = load ptr, ptr %5, align 8
  %27 = getelementptr inbounds i8, ptr %26, i64 0
  %28 = load i8, ptr %27, align 1
  %29 = sext i8 %28 to i32
  %30 = icmp ne i32 %29, 44
  br label %31

31:                                               ; preds = %25, %16
  %32 = phi i1 [ false, %16 ], [ %30, %25 ]
  %33 = select i1 %32, ptr @.str.13, ptr @.str.11
  %34 = load ptr, ptr %5, align 8
  call void (ptr, ptr, ...) @_xstrfmtcat(ptr noundef %17, ptr noundef @.str.178, ptr noundef %21, ptr noundef %33, ptr noundef %34)
  br label %35

35:                                               ; preds = %31, %10, %3
  %36 = load i32, ptr %6, align 4
  %37 = and i32 %36, 1
  %38 = icmp ne i32 %37, 0
  br i1 %38, label %39, label %40

39:                                               ; preds = %35
  br label %59

40:                                               ; preds = %35
  %41 = load ptr, ptr %4, align 8
  %42 = load ptr, ptr %41, align 8
  %43 = load i32, ptr %6, align 4
  call void @slurmdb_tres_list_from_string(ptr noundef %7, ptr noundef %42, i32 noundef %43)
  %44 = load ptr, ptr %4, align 8
  call void @slurm_xfree(ptr noundef %44)
  %45 = load i32, ptr %6, align 4
  %46 = or i32 %45, 16
  store i32 %46, ptr %6, align 4
  %47 = load ptr, ptr %7, align 8
  %48 = load i32, ptr %6, align 4
  %49 = call ptr @slurmdb_make_tres_string(ptr noundef %47, i32 noundef %48)
  %50 = load ptr, ptr %4, align 8
  store ptr %49, ptr %50, align 8
  br label %51

51:                                               ; preds = %40
  %52 = load ptr, ptr %7, align 8
  %53 = icmp ne ptr %52, null
  br i1 %53, label %54, label %56

54:                                               ; preds = %51
  %55 = load ptr, ptr %7, align 8
  call void @list_destroy(ptr noundef %55)
  br label %56

56:                                               ; preds = %54, %51
  store ptr null, ptr %7, align 8
  br label %57

57:                                               ; preds = %56
  br label %58

58:                                               ; preds = %57
  br label %59

59:                                               ; preds = %58, %39
  %60 = load ptr, ptr %4, align 8
  %61 = load ptr, ptr %60, align 8
  %62 = icmp ne ptr %61, null
  br i1 %62, label %70, label %63

63:                                               ; preds = %59
  %64 = load i32, ptr %6, align 4
  %65 = and i32 %64, 64
  %66 = icmp ne i32 %65, 0
  br i1 %66, label %67, label %70

67:                                               ; preds = %63
  %68 = call ptr @xstrdup(ptr noundef @.str.11)
  %69 = load ptr, ptr %4, align 8
  store ptr %68, ptr %69, align 8
  br label %70

70:                                               ; preds = %67, %63, %59
  %71 = load ptr, ptr %4, align 8
  %72 = load ptr, ptr %71, align 8
  call void @llvm.lifetime.end.p0(i64 8, ptr %7) #10
  ret ptr %72
}