; Function Attrs: nounwind uwtable
define dso_local ptr @slurmdb_combine_tres_strings(ptr noundef %0, ptr noundef %1, i32 noundef %2) local_unnamed_addr #0 {
  %4 = alloca ptr, align 8
  call void @llvm.lifetime.start.p0(i64 8, ptr nonnull %4) #19
  store ptr null, ptr %4, align 8
  %.not = icmp eq ptr %1, null
  br i1 %.not, label %13, label %5

5:                                                ; preds = %3
  %6 = load i8, ptr %1, align 1
  %.not20 = icmp eq i8 %6, 0
  br i1 %.not20, label %13, label %7

7:                                                ; preds = %5
  %8 = and i32 %2, 33
  %.not21 = icmp eq i32 %8, 0
  %9 = select i1 %.not21, ptr @.str.11, ptr @.str.13
  %10 = load ptr, ptr %0, align 8
  %.not22 = icmp eq ptr %10, null
  %.not23 = icmp eq i8 %6, 44
  %11 = or i1 %.not23, %.not22
  %12 = select i1 %11, ptr @.str.11, ptr @.str.13
  tail call void (ptr, ptr, ...) @_xstrfmtcat(ptr noundef nonnull %0, ptr noundef nonnull @.str.178, ptr noundef nonnull %9, ptr noundef nonnull %12, ptr noundef nonnull %1) #19
  br label %13

13:                                               ; preds = %7, %5, %3
  %14 = and i32 %2, 1
  %.not24 = icmp eq i32 %14, 0
  %.pre28 = load ptr, ptr %0, align 8
  br i1 %.not24, label %15, label %20

15:                                               ; preds = %13
  call void @slurmdb_tres_list_from_string(ptr noundef nonnull %4, ptr noundef %.pre28, i32 noundef %2)
  tail call void @slurm_xfree(ptr noundef nonnull %0) #19
  %16 = or i32 %2, 16
  %17 = load ptr, ptr %4, align 8
  %18 = tail call ptr @slurmdb_make_tres_string(ptr noundef %17, i32 noundef %16)
  store ptr %18, ptr %0, align 8
  %.not25 = icmp eq ptr %17, null
  br i1 %.not25, label %20, label %19

19:                                               ; preds = %15
  tail call void @list_destroy(ptr noundef nonnull %17) #19
  %.pre.pre = load ptr, ptr %0, align 8
  br label %20

20:                                               ; preds = %15, %19, %13
  %21 = phi ptr [ %.pre28, %13 ], [ %.pre.pre, %19 ], [ %18, %15 ]
  %.0 = phi i32 [ %2, %13 ], [ %16, %19 ], [ %16, %15 ]
  %.not26 = icmp ne ptr %21, null
  %22 = and i32 %.0, 64
  %.not27 = icmp eq i32 %22, 0
  %or.cond = or i1 %.not26, %.not27
  br i1 %or.cond, label %25, label %23

23:                                               ; preds = %20
  %24 = tail call ptr @xstrdup(ptr noundef nonnull @.str.11) #19
  store ptr %24, ptr %0, align 8
  br label %25

25:                                               ; preds = %23, %20
  %26 = phi ptr [ %24, %23 ], [ %21, %20 ]
  call void @llvm.lifetime.end.p0(i64 8, ptr nonnull %4) #19
  ret ptr %26
}